; ModuleID = '41/1109.cpp'
source_filename = "41/1109.cpp"
target datalayout = "e-m:e-p270:32:32-p271:32:32-p272:64:64-i64:64-f80:128-n8:16:32:64-S128"
target triple = "x86_64-pc-linux-gnu"

%"class.std::ios_base::Init" = type { i8 }
%"class.std::basic_ostream" = type { i32 (...)**, %"class.std::basic_ios" }
%"class.std::basic_ios" = type { %"class.std::ios_base", %"class.std::basic_ostream"*, i8, i8, %"class.std::basic_streambuf"*, %"class.std::ctype"*, %"class.std::num_put"*, %"class.std::num_get"* }
%"class.std::ios_base" = type { i32 (...)**, i64, i64, i32, i32, i32, %"struct.std::ios_base::_Callback_list"*, %"struct.std::ios_base::_Words", [8 x %"struct.std::ios_base::_Words"], i32, %"struct.std::ios_base::_Words"*, %"class.std::locale" }
%"struct.std::ios_base::_Callback_list" = type { %"struct.std::ios_base::_Callback_list"*, void (i32, %"class.std::ios_base"*, i32)*, i32, i32 }
%"struct.std::ios_base::_Words" = type { i8*, i64 }
%"class.std::locale" = type { %"class.std::locale::_Impl"* }
%"class.std::locale::_Impl" = type { i32, %"class.std::locale::facet"**, i64, %"class.std::locale::facet"**, i8** }
%"class.std::locale::facet" = type <{ i32 (...)**, i32, [4 x i8] }>
%"class.std::basic_streambuf" = type { i32 (...)**, i8*, i8*, i8*, i8*, i8*, i8*, %"class.std::locale" }
%"class.std::ctype" = type <{ %"class.std::locale::facet.base", [4 x i8], %struct.__locale_struct*, i8, [7 x i8], i32*, i32*, i16*, i8, [256 x i8], [256 x i8], i8, [6 x i8] }>
%"class.std::locale::facet.base" = type <{ i32 (...)**, i32 }>
%struct.__locale_struct = type { [13 x %struct.__locale_data*], i16*, i32*, i32*, [13 x i8*] }
%struct.__locale_data = type opaque
%"class.std::num_put" = type { %"class.std::locale::facet.base", [4 x i8] }
%"class.std::num_get" = type { %"class.std::locale::facet.base", [4 x i8] }

@_ZStL8__ioinit = internal global %"class.std::ios_base::Init" zeroinitializer, align 1
@__dso_handle = external hidden global i8
@_ZSt4cout = external dso_local global %"class.std::basic_ostream", align 8
@llvm.global_ctors = appending global [1 x { i32, void ()*, i8* }] [{ i32, void ()*, i8* } { i32 65535, void ()* @_GLOBAL__sub_I_1109.cpp, i8* null }]

; Function Attrs: noinline uwtable
define internal void @__cxx_global_var_init() #0 section ".text.startup" {
  call void @_ZNSt8ios_base4InitC1Ev(%"class.std::ios_base::Init"* @_ZStL8__ioinit)
  %1 = call i32 @__cxa_atexit(void (i8*)* bitcast (void (%"class.std::ios_base::Init"*)* @_ZNSt8ios_base4InitD1Ev to void (i8*)*), i8* getelementptr inbounds (%"class.std::ios_base::Init", %"class.std::ios_base::Init"* @_ZStL8__ioinit, i32 0, i32 0), i8* @__dso_handle) #3
  ret void
}

declare dso_local void @_ZNSt8ios_base4InitC1Ev(%"class.std::ios_base::Init"*) unnamed_addr #1

; Function Attrs: nounwind
declare dso_local void @_ZNSt8ios_base4InitD1Ev(%"class.std::ios_base::Init"*) unnamed_addr #2

; Function Attrs: nounwind
declare dso_local i32 @__cxa_atexit(void (i8*)*, i8*, i8*) #3

; Function Attrs: noinline norecurse uwtable
define dso_local i32 @main() #4 {
  %1 = alloca i32, align 4
  %2 = alloca i32, align 4
  %3 = alloca i32, align 4
  %4 = alloca i32, align 4
  %5 = alloca i32, align 4
  %6 = alloca i32, align 4
  %7 = alloca [5 x i32], align 16
  store i32 0, i32* %1, align 4
  store i32 1, i32* %2, align 4
  br label %8

8:                                                ; preds = %187, %0
  %9 = load i32, i32* %2, align 4
  %10 = icmp sle i32 %9, 5
  br i1 %10, label %11, label %190

11:                                               ; preds = %8
  store i32 1, i32* %3, align 4
  br label %12

12:                                               ; preds = %183, %11
  %13 = load i32, i32* %3, align 4
  %14 = icmp sle i32 %13, 5
  br i1 %14, label %15, label %186

15:                                               ; preds = %12
  %16 = load i32, i32* %2, align 4
  %17 = load i32, i32* %3, align 4
  %18 = icmp eq i32 %16, %17
  br i1 %18, label %19, label %20

19:                                               ; preds = %15
  br label %183

20:                                               ; preds = %15
  store i32 1, i32* %4, align 4
  br label %21

21:                                               ; preds = %178, %20
  %22 = load i32, i32* %4, align 4
  %23 = icmp sle i32 %22, 5
  br i1 %23, label %24, label %181

24:                                               ; preds = %21
  %25 = load i32, i32* %2, align 4
  %26 = load i32, i32* %4, align 4
  %27 = icmp eq i32 %25, %26
  br i1 %27, label %32, label %28

28:                                               ; preds = %24
  %29 = load i32, i32* %3, align 4
  %30 = load i32, i32* %4, align 4
  %31 = icmp eq i32 %29, %30
  br i1 %31, label %32, label %33

32:                                               ; preds = %28, %24
  br label %178

33:                                               ; preds = %28
  store i32 1, i32* %5, align 4
  br label %34

34:                                               ; preds = %173, %33
  %35 = load i32, i32* %5, align 4
  %36 = icmp sle i32 %35, 5
  br i1 %36, label %37, label %176

37:                                               ; preds = %34
  %38 = load i32, i32* %2, align 4
  %39 = load i32, i32* %5, align 4
  %40 = icmp eq i32 %38, %39
  br i1 %40, label %49, label %41

41:                                               ; preds = %37
  %42 = load i32, i32* %3, align 4
  %43 = load i32, i32* %5, align 4
  %44 = icmp eq i32 %42, %43
  br i1 %44, label %49, label %45

45:                                               ; preds = %41
  %46 = load i32, i32* %4, align 4
  %47 = load i32, i32* %5, align 4
  %48 = icmp eq i32 %46, %47
  br i1 %48, label %49, label %50

49:                                               ; preds = %45, %41, %37
  br label %173

50:                                               ; preds = %45
  %51 = load i32, i32* %2, align 4
  %52 = sub nsw i32 15, %51
  %53 = load i32, i32* %3, align 4
  %54 = sub nsw i32 %52, %53
  %55 = load i32, i32* %4, align 4
  %56 = sub nsw i32 %54, %55
  %57 = load i32, i32* %5, align 4
  %58 = sub nsw i32 %56, %57
  store i32 %58, i32* %6, align 4
  %59 = load i32, i32* %6, align 4
  %60 = icmp eq i32 %59, 1
  br i1 %60, label %61, label %69

61:                                               ; preds = %50
  %62 = load i32, i32* %2, align 4
  %63 = icmp eq i32 %62, 1
  br i1 %63, label %67, label %64

64:                                               ; preds = %61
  %65 = load i32, i32* %2, align 4
  %66 = icmp eq i32 %65, 2
  br label %67

67:                                               ; preds = %64, %61
  %68 = phi i1 [ true, %61 ], [ %66, %64 ]
  br label %69

69:                                               ; preds = %67, %50
  %70 = phi i1 [ false, %50 ], [ %68, %67 ]
  %71 = zext i1 %70 to i32
  %72 = getelementptr inbounds [5 x i32], [5 x i32]* %7, i64 0, i64 0
  store i32 %71, i32* %72, align 16
  %73 = load i32, i32* %3, align 4
  %74 = icmp eq i32 %73, 2
  br i1 %74, label %75, label %83

75:                                               ; preds = %69
  %76 = load i32, i32* %3, align 4
  %77 = icmp eq i32 %76, 1
  br i1 %77, label %81, label %78

78:                                               ; preds = %75
  %79 = load i32, i32* %3, align 4
  %80 = icmp eq i32 %79, 2
  br label %81

81:                                               ; preds = %78, %75
  %82 = phi i1 [ true, %75 ], [ %80, %78 ]
  br label %83

83:                                               ; preds = %81, %69
  %84 = phi i1 [ false, %69 ], [ %82, %81 ]
  %85 = zext i1 %84 to i32
  %86 = getelementptr inbounds [5 x i32], [5 x i32]* %7, i64 0, i64 1
  store i32 %85, i32* %86, align 4
  %87 = load i32, i32* %2, align 4
  %88 = icmp eq i32 %87, 5
  br i1 %88, label %89, label %97

89:                                               ; preds = %83
  %90 = load i32, i32* %4, align 4
  %91 = icmp eq i32 %90, 1
  br i1 %91, label %95, label %92

92:                                               ; preds = %89
  %93 = load i32, i32* %4, align 4
  %94 = icmp eq i32 %93, 2
  br label %95

95:                                               ; preds = %92, %89
  %96 = phi i1 [ true, %89 ], [ %94, %92 ]
  br label %97

97:                                               ; preds = %95, %83
  %98 = phi i1 [ false, %83 ], [ %96, %95 ]
  %99 = zext i1 %98 to i32
  %100 = getelementptr inbounds [5 x i32], [5 x i32]* %7, i64 0, i64 2
  store i32 %99, i32* %100, align 8
  %101 = load i32, i32* %4, align 4
  %102 = icmp ne i32 %101, 1
  br i1 %102, label %103, label %111

103:                                              ; preds = %97
  %104 = load i32, i32* %5, align 4
  %105 = icmp eq i32 %104, 1
  br i1 %105, label %109, label %106

106:                                              ; preds = %103
  %107 = load i32, i32* %5, align 4
  %108 = icmp eq i32 %107, 2
  br label %109

109:                                              ; preds = %106, %103
  %110 = phi i1 [ true, %103 ], [ %108, %106 ]
  br label %111

111:                                              ; preds = %109, %97
  %112 = phi i1 [ false, %97 ], [ %110, %109 ]
  %113 = zext i1 %112 to i32
  %114 = getelementptr inbounds [5 x i32], [5 x i32]* %7, i64 0, i64 3
  store i32 %113, i32* %114, align 4
  %115 = load i32, i32* %5, align 4
  %116 = icmp eq i32 %115, 1
  br i1 %116, label %117, label %125

117:                                              ; preds = %111
  %118 = load i32, i32* %6, align 4
  %119 = icmp eq i32 %118, 1
  br i1 %119, label %123, label %120

120:                                              ; preds = %117
  %121 = load i32, i32* %6, align 4
  %122 = icmp eq i32 %121, 2
  br label %123

123:                                              ; preds = %120, %117
  %124 = phi i1 [ true, %117 ], [ %122, %120 ]
  br label %125

125:                                              ; preds = %123, %111
  %126 = phi i1 [ false, %111 ], [ %124, %123 ]
  %127 = zext i1 %126 to i32
  %128 = getelementptr inbounds [5 x i32], [5 x i32]* %7, i64 0, i64 4
  store i32 %127, i32* %128, align 16
  %129 = getelementptr inbounds [5 x i32], [5 x i32]* %7, i64 0, i64 0
  %130 = load i32, i32* %129, align 16
  %131 = getelementptr inbounds [5 x i32], [5 x i32]* %7, i64 0, i64 1
  %132 = load i32, i32* %131, align 4
  %133 = add nsw i32 %130, %132
  %134 = getelementptr inbounds [5 x i32], [5 x i32]* %7, i64 0, i64 2
  %135 = load i32, i32* %134, align 8
  %136 = add nsw i32 %133, %135
  %137 = getelementptr inbounds [5 x i32], [5 x i32]* %7, i64 0, i64 3
  %138 = load i32, i32* %137, align 4
  %139 = add nsw i32 %136, %138
  %140 = getelementptr inbounds [5 x i32], [5 x i32]* %7, i64 0, i64 4
  %141 = load i32, i32* %140, align 16
  %142 = add nsw i32 %139, %141
  %143 = icmp eq i32 %142, 2
  br i1 %143, label %144, label %171

144:                                              ; preds = %125
  %145 = load i32, i32* %3, align 4
  %146 = icmp eq i32 %145, 2
  br i1 %146, label %147, label %171

147:                                              ; preds = %144
  %148 = load i32, i32* %4, align 4
  %149 = icmp eq i32 %148, 1
  br i1 %149, label %150, label %171

150:                                              ; preds = %147
  %151 = load i32, i32* %5, align 4
  %152 = icmp eq i32 %151, 3
  br i1 %152, label %153, label %171

153:                                              ; preds = %150
  %154 = load i32, i32* %6, align 4
  %155 = icmp eq i32 %154, 4
  br i1 %155, label %156, label %171

156:                                              ; preds = %153
  %157 = load i32, i32* %2, align 4
  %158 = call dereferenceable(272) %"class.std::basic_ostream"* @_ZNSolsEi(%"class.std::basic_ostream"* @_ZSt4cout, i32 %157)
  %159 = call dereferenceable(272) %"class.std::basic_ostream"* @_ZStlsISt11char_traitsIcEERSt13basic_ostreamIcT_ES5_c(%"class.std::basic_ostream"* dereferenceable(272) %158, i8 signext 32)
  %160 = load i32, i32* %3, align 4
  %161 = call dereferenceable(272) %"class.std::basic_ostream"* @_ZNSolsEi(%"class.std::basic_ostream"* %159, i32 %160)
  %162 = call dereferenceable(272) %"class.std::basic_ostream"* @_ZStlsISt11char_traitsIcEERSt13basic_ostreamIcT_ES5_c(%"class.std::basic_ostream"* dereferenceable(272) %161, i8 signext 32)
  %163 = load i32, i32* %4, align 4
  %164 = call dereferenceable(272) %"class.std::basic_ostream"* @_ZNSolsEi(%"class.std::basic_ostream"* %162, i32 %163)
  %165 = call dereferenceable(272) %"class.std::basic_ostream"* @_ZStlsISt11char_traitsIcEERSt13basic_ostreamIcT_ES5_c(%"class.std::basic_ostream"* dereferenceable(272) %164, i8 signext 32)
  %166 = load i32, i32* %5, align 4
  %167 = call dereferenceable(272) %"class.std::basic_ostream"* @_ZNSolsEi(%"class.std::basic_ostream"* %165, i32 %166)
  %168 = call dereferenceable(272) %"class.std::basic_ostream"* @_ZStlsISt11char_traitsIcEERSt13basic_ostreamIcT_ES5_c(%"class.std::basic_ostream"* dereferenceable(272) %167, i8 signext 32)
  %169 = load i32, i32* %6, align 4
  %170 = call dereferenceable(272) %"class.std::basic_ostream"* @_ZNSolsEi(%"class.std::basic_ostream"* %168, i32 %169)
  br label %171

171:                                              ; preds = %156, %153, %150, %147, %144, %125
  br label %172

172:                                              ; preds = %171
  br label %173

173:                                              ; preds = %172, %49
  %174 = load i32, i32* %5, align 4
  %175 = add nsw i32 %174, 1
  store i32 %175, i32* %5, align 4
  br label %34

176:                                              ; preds = %34
  br label %177

177:                                              ; preds = %176
  br label %178

178:                                              ; preds = %177, %32
  %179 = load i32, i32* %4, align 4
  %180 = add nsw i32 %179, 1
  store i32 %180, i32* %4, align 4
  br label %21

181:                                              ; preds = %21
  br label %182

182:                                              ; preds = %181
  br label %183

183:                                              ; preds = %182, %19
  %184 = load i32, i32* %3, align 4
  %185 = add nsw i32 %184, 1
  store i32 %185, i32* %3, align 4
  br label %12

186:                                              ; preds = %12
  br label %187

187:                                              ; preds = %186
  %188 = load i32, i32* %2, align 4
  %189 = add nsw i32 %188, 1
  store i32 %189, i32* %2, align 4
  br label %8

190:                                              ; preds = %8
  ret i32 0
}

declare dso_local dereferenceable(272) %"class.std::basic_ostream"* @_ZStlsISt11char_traitsIcEERSt13basic_ostreamIcT_ES5_c(%"class.std::basic_ostream"* dereferenceable(272), i8 signext) #1

declare dso_local dereferenceable(272) %"class.std::basic_ostream"* @_ZNSolsEi(%"class.std::basic_ostream"*, i32) #1

; Function Attrs: noinline uwtable
define internal void @_GLOBAL__sub_I_1109.cpp() #0 section ".text.startup" {
  call void @__cxx_global_var_init()
  ret void
}


!llvm.module.flags = !{!0}
!llvm.ident = !{!1}

!0 = !{i32 1, !"wchar_size", i32 4}
!1 = !{!"clang version 10.0.0-4ubuntu1 "}
